; Function Attrs: mustprogress uwtable
define void @_ZN19QualityMapperDialog17on_EQHandle_movedEv(ptr noundef nonnull align 8 dereferenceable(824) %0) local_unnamed_addr #9 align 2 {
  %2 = getelementptr inbounds i8, ptr %0, i64 688
  %3 = load ptr, ptr %2, align 8
  %.not = icmp eq ptr %3, null
  br i1 %.not, label %5, label %4

4:                                                ; preds = %1
  tail call void @_ZN19QualityMapperDialog22drawTransferFunctionBGEv(ptr noundef nonnull align 8 dereferenceable(824) %0)
  br label %5

5:                                                ; preds = %4, %1
  %6 = getelementptr inbounds i8, ptr %0, i64 752
  %7 = load ptr, ptr %6, align 8
  %.not1 = icmp eq ptr %7, null
  br i1 %.not1, label %12, label %8

8:                                                ; preds = %5
  %9 = getelementptr inbounds i8, ptr %7, i64 72
  %10 = load ptr, ptr %9, align 8
  %11 = load float, ptr %10, align 4
  tail call void @_ZN19QualityMapperDialog19updateXQualityLabelEf(ptr noundef nonnull align 8 dereferenceable(824) %0, float noundef %11)
  br label %12

12:                                               ; preds = %8, %5
  ret void
}